target datalayout = "e-m:e-p270:32:32-p271:32:32-p272:64:64-i64:64-i128:128-f80:128-n8:16:32:64-S128"
target triple = "x86_64-pc-linux-gnu"

@stdin = external global ptr, align 8
@stderr = external global ptr, align 8
@.str = private unnamed_addr constant [27 x i8] c"Could not read from stdin\0A\00", align 1

; Function Attrs: nounwind uwtable
define hidden ptr @ImgIoUtilSetBinaryMode(ptr noundef %0) #0 {
  %2 = alloca ptr, align 8
  store ptr %0, ptr %2, align 8
  %3 = load ptr, ptr %2, align 8
  ret ptr %3
}

; Function Attrs: nounwind uwtable
define hidden i32 @ImgIoUtilReadFromStdin(ptr noundef %0, ptr noundef %1) #0 {
  %3 = alloca i32, align 4
  %4 = alloca ptr, align 8
  %5 = alloca ptr, align 8
  %6 = alloca i64, align 8
  %7 = alloca i64, align 8
  %8 = alloca ptr, align 8
  %9 = alloca i64, align 8
  %10 = alloca ptr, align 8
  store ptr %0, ptr %4, align 8
  store ptr %1, ptr %5, align 8
  store i64 0, ptr %6, align 8
  store i64 0, ptr %7, align 8
  store ptr null, ptr %8, align 8
  %11 = load ptr, ptr %4, align 8
  %12 = icmp eq ptr %11, null
  br i1 %12, label %16, label %13

13:                                               ; preds = %2
  %14 = load ptr, ptr %5, align 8
  %15 = icmp eq ptr %14, null
  br i1 %15, label %16, label %17

16:                                               ; preds = %13, %2
  store i32 0, ptr %3, align 4
  br label %86

17:                                               ; preds = %13
  %18 = load ptr, ptr %4, align 8
  store ptr null, ptr %18, align 8
  %19 = load ptr, ptr %5, align 8
  store i64 0, ptr %19, align 8
  %20 = load ptr, ptr @stdin, align 8
  %21 = call ptr @ImgIoUtilSetBinaryMode(ptr noundef %20)
  %22 = icmp ne ptr %21, null
  br i1 %22, label %24, label %23

23:                                               ; preds = %17
  store i32 0, ptr %3, align 4
  br label %86

24:                                               ; preds = %17
  br label %25

25:                                               ; preds = %64, %24
  %26 = load ptr, ptr @stdin, align 8
  %27 = call i32 @feof(ptr noundef %26) #6
  %28 = icmp ne i32 %27, 0
  %29 = xor i1 %28, true
  br i1 %29, label %30, label %65

30:                                               ; preds = %25
  %31 = load i64, ptr %6, align 8
  %32 = icmp eq i64 %31, 0
  br i1 %32, label %33, label %34

33:                                               ; preds = %30
  br label %36

34:                                               ; preds = %30
  %35 = load i64, ptr %6, align 8
  br label %36

36:                                               ; preds = %34, %33
  %37 = phi i64 [ 16384, %33 ], [ %35, %34 ]
  store i64 %37, ptr %9, align 8
  %38 = load ptr, ptr %8, align 8
  %39 = load i64, ptr %6, align 8
  %40 = load i64, ptr %9, align 8
  %41 = add i64 %39, %40
  %42 = add i64 %41, 1
  %43 = call ptr @realloc(ptr noundef %38, i64 noundef %42) #7
  store ptr %43, ptr %10, align 8
  %44 = load ptr, ptr %10, align 8
  %45 = icmp eq ptr %44, null
  br i1 %45, label %46, label %47

46:                                               ; preds = %36
  br label %82

47:                                               ; preds = %36
  %48 = load ptr, ptr %10, align 8
  store ptr %48, ptr %8, align 8
  %49 = load i64, ptr %9, align 8
  %50 = load i64, ptr %6, align 8
  %51 = add i64 %50, %49
  store i64 %51, ptr %6, align 8
  %52 = load ptr, ptr %8, align 8
  %53 = load i64, ptr %7, align 8
  %54 = getelementptr inbounds i8, ptr %52, i64 %53
  %55 = load i64, ptr %9, align 8
  %56 = load ptr, ptr @stdin, align 8
  %57 = call i64 @fread(ptr noundef %54, i64 noundef 1, i64 noundef %55, ptr noundef %56)
  %58 = load i64, ptr %7, align 8
  %59 = add i64 %58, %57
  store i64 %59, ptr %7, align 8
  %60 = load i64, ptr %7, align 8
  %61 = load i64, ptr %6, align 8
  %62 = icmp ult i64 %60, %61
  br i1 %62, label %63, label %64

63:                                               ; preds = %47
  br label %65

64:                                               ; preds = %47
  br label %25, !llvm.loop !5

65:                                               ; preds = %63, %25
  %66 = load ptr, ptr @stdin, align 8
  %67 = call i32 @ferror(ptr noundef %66) #6
  %68 = icmp ne i32 %67, 0
  br i1 %68, label %69, label %70

69:                                               ; preds = %65
  br label %82

70:                                               ; preds = %65
  %71 = load ptr, ptr %8, align 8
  %72 = icmp ne ptr %71, null
  br i1 %72, label %73, label %77

73:                                               ; preds = %70
  %74 = load ptr, ptr %8, align 8
  %75 = load i64, ptr %7, align 8
  %76 = getelementptr inbounds i8, ptr %74, i64 %75
  store i8 0, ptr %76, align 1
  br label %77

77:                                               ; preds = %73, %70
  %78 = load ptr, ptr %8, align 8
  %79 = load ptr, ptr %4, align 8
  store ptr %78, ptr %79, align 8
  %80 = load i64, ptr %7, align 8
  %81 = load ptr, ptr %5, align 8
  store i64 %80, ptr %81, align 8
  store i32 1, ptr %3, align 4
  br label %86

82:                                               ; preds = %69, %46
  %83 = load ptr, ptr %8, align 8
  call void @free(ptr noundef %83) #6
  %84 = load ptr, ptr @stderr, align 8
  %85 = call i32 (ptr, ptr, ...) @fprintf(ptr noundef %84, ptr noundef @.str) #6
  store i32 0, ptr %3, align 4
  br label %86

86:                                               ; preds = %82, %77, %23, %16
  %87 = load i32, ptr %3, align 4
  ret i32 %87
}