; Function Attrs: nounwind uwtable
define hidden range(i32 0, 2) i32 @ImgIoUtilReadFromStdin(ptr noundef writeonly %0, ptr noundef writeonly %1) local_unnamed_addr #1 {
  %3 = icmp eq ptr %0, null
  %4 = icmp eq ptr %1, null
  %or.cond = or i1 %3, %4
  br i1 %or.cond, label %31, label %5

5:                                                ; preds = %2
  store ptr null, ptr %0, align 8
  store i64 0, ptr %1, align 8
  %6 = load ptr, ptr @stdin, align 8
  %.not = icmp eq ptr %6, null
  br i1 %.not, label %31, label %.preheader

.preheader:                                       ; preds = %5, %16
  %.030 = phi i64 [ %20, %16 ], [ 0, %5 ]
  %.029 = phi ptr [ %14, %16 ], [ null, %5 ]
  %.028 = phi i64 [ %12, %16 ], [ 0, %5 ]
  %7 = load ptr, ptr @stdin, align 8
  %8 = tail call i32 @feof(ptr noundef %7) #10
  %.not38 = icmp eq i32 %8, 0
  br i1 %.not38, label %9, label %22

9:                                                ; preds = %.preheader
  %10 = icmp eq i64 %.028, 0
  %11 = select i1 %10, i64 16384, i64 %.028
  %12 = add i64 %11, %.028
  %13 = add i64 %12, 1
  %14 = tail call ptr @realloc(ptr noundef %.029, i64 noundef %13) #11
  %15 = icmp eq ptr %14, null
  br i1 %15, label %.loopexit, label %16

16:                                               ; preds = %9
  %17 = getelementptr inbounds i8, ptr %14, i64 %.030
  %18 = load ptr, ptr @stdin, align 8
  %19 = tail call i64 @fread(ptr noundef nonnull %17, i64 noundef 1, i64 noundef %11, ptr noundef %18)
  %20 = add i64 %19, %.030
  %21 = icmp ult i64 %20, %12
  br i1 %21, label %22, label %.preheader, !llvm.loop !5

22:                                               ; preds = %16, %.preheader
  %.131 = phi i64 [ %20, %16 ], [ %.030, %.preheader ]
  %.1 = phi ptr [ %14, %16 ], [ %.029, %.preheader ]
  %23 = load ptr, ptr @stdin, align 8
  %24 = tail call i32 @ferror(ptr noundef %23) #10
  %.not39 = icmp eq i32 %24, 0
  br i1 %.not39, label %25, label %.loopexit

25:                                               ; preds = %22
  %.not40 = icmp eq ptr %.1, null
  br i1 %.not40, label %28, label %26

26:                                               ; preds = %25
  %27 = getelementptr inbounds i8, ptr %.1, i64 %.131
  store i8 0, ptr %27, align 1
  br label %28

28:                                               ; preds = %26, %25
  store ptr %.1, ptr %0, align 8
  store i64 %.131, ptr %1, align 8
  br label %31

.loopexit:                                        ; preds = %9, %22
  %.2 = phi ptr [ %.1, %22 ], [ %.029, %9 ]
  tail call void @free(ptr noundef %.2) #10
  %29 = load ptr, ptr @stderr, align 8
  %30 = tail call i64 @fwrite(ptr nonnull @.str, i64 26, i64 1, ptr %29) #12
  br label %31

31:                                               ; preds = %5, %2, %.loopexit, %28
  %.0 = phi i32 [ 0, %.loopexit ], [ 1, %28 ], [ 0, %2 ], [ 0, %5 ]
  ret i32 %.0
}